(dp1
S'files'
p2
(dp3
S'compat'
p4
(dp5
S'index'
p6
(dp7
S'html_filename'
p8
S'compat.html'
p9
sS'name'
p10
g4
sS'nums'
p11
ccopy_reg
_reconstructor
p12
(ccoverage.results
Numbers
p13
c__builtin__
object
p14
NtRp15
(dp16
S'n_files'
p17
I1
sS'n_branches'
p18
I8
sS'n_statements'
p19
I34
sS'n_excluded'
p20
I15
sS'n_partial_branches'
p21
I2
sS'n_missing'
p22
I4
sS'n_missing_branches'
p23
I2
sbssS'hash'
p24
S'\x18\x04P\x8e\x11\x82\xd9<\n\xc6\x94\xd5\x02\xbb\xb6\x8d'
p25
ssS'catatom2osm'
p26
(dp27
g6
(dp28
g8
S'catatom2osm.html'
p29
sg10
g26
sg11
g12
(g13
g14
NtRp30
(dp31
g17
I1
sg18
I234
sg19
I512
sg20
I0
sg21
I43
sg22
I77
sg23
I67
sbssg24
S'\x91\xb6\xe75w\xf3\xcf;\xe6\x82c\xab\xc8\x88\x0c\xc4'
p32
ssS'layer'
p33
(dp34
g6
(dp35
g8
S'layer.html'
p36
sg10
g33
sg11
g12
(g13
g14
NtRp37
(dp38
g17
I1
sg18
I571
sg19
I1266
sg20
I23
sg21
I67
sg22
I114
sg23
I95
sbssg24
S'\xf9^\x85\x15{\xd7\x90\x8d\x01\x8e\xa2\xb5f\xda\x15\xda'
p39
ssS'cdau'
p40
(dp41
g6
(dp42
g8
S'cdau.html'
p43
sg10
g40
sg11
g12
(g13
g14
NtRp44
(dp45
g17
I1
sg18
I48
sg19
I151
sg20
I0
sg21
I0
sg22
I56
sg23
I22
sbssg24
S'\xa8\x17\xa3c\x8csZ4\x1b\n\xc6b\xb9cd['
p46
ssS'osmxml'
p47
(dp48
g6
(dp49
g8
S'osmxml.html'
p50
sg10
g47
sg11
g12
(g13
g14
NtRp51
(dp52
g17
I1
sg18
I84
sg19
I122
sg20
I2
sg21
I3
sg22
I1
sg23
I3
sbssg24
S'\xca\xacR\x16x\xf9\xb7t]\xc0}\xf7[(.\xbb'
p53
ssS'hgwnames'
p54
(dp55
g6
(dp56
g8
S'hgwnames.html'
p57
sg10
g54
sg11
g12
(g13
g14
NtRp58
(dp59
g17
I1
sg18
I26
sg19
I61
sg20
I0
sg21
I0
sg22
I2
sg23
I0
sbssg24
S';A\xb8Y\x1f\x92\\e\x07[\xb4\x06\xbe\xea\xed\x00'
p60
ssS'overpass'
p61
(dp62
g6
(dp63
g8
S'overpass.html'
p64
sg10
g61
sg11
g12
(g13
g14
NtRp65
(dp66
g17
I1
sg18
I16
sg19
I51
sg20
I0
sg21
I0
sg22
I0
sg23
I0
sbssg24
S'Xo\x8e\xb0A\xa4\xaf\xa7\x08\x05dZ\x87\x0f\xba\x17'
p67
ssS'translate'
p68
(dp69
g6
(dp70
g8
S'translate.html'
p71
sg10
g68
sg11
g12
(g13
g14
NtRp72
(dp73
g17
I1
sg18
I32
sg19
I57
sg20
I0
sg21
I0
sg22
I0
sg23
I0
sbssg24
S':|\xa3\xc9\xadkL\x9cE\xf7!D\xb7\xa7\xeag'
p74
ssS'qgiscompat'
p75
(dp76
g6
(dp77
g8
S'qgiscompat.html'
p78
sg10
g75
sg11
g12
(g13
g14
NtRp79
(dp80
g17
I1
sg18
I4
sg19
I49
sg20
I0
sg21
I1
sg22
I19
sg23
I3
sbssg24
S'h\xc2/\x04\xe0o\xef\xee\x8dV\x9c\xbb\xfe\xac\xce\x8b'
p81
ssS'catatom'
p82
(dp83
g6
(dp84
g8
S'catatom.html'
p85
sg10
g82
sg11
g12
(g13
g14
NtRp86
(dp87
g17
I1
sg18
I62
sg19
I190
sg20
I0
sg21
I2
sg22
I6
sg23
I2
sbssg24
S'l\x8e\x97>\xc9\x05\x82\xa0\xa9\xa0\xab)\xc5\xab+}'
p88
ssS'report'
p89
(dp90
g6
(dp91
g8
S'report.html'
p92
sg10
g89
sg11
g12
(g13
g14
NtRp93
(dp94
g17
I1
sg18
I103
sg19
I163
sg20
I0
sg21
I9
sg22
I9
sg23
I9
sbssg24
S'\xc9\t\xa08\xf6hHW\xa7\xb9\x8eo\xbc\xf1\xbf\xff'
p95
ssS'osm'
p96
(dp97
g6
(dp98
g8
S'osm.html'
p99
sg10
g96
sg11
g12
(g13
g14
NtRp100
(dp101
g17
I1
sg18
I128
sg19
I325
sg20
I0
sg21
I2
sg22
I0
sg23
I2
sbssg24
S'x\xb4\xb8\xb6r)\xf0\xec\xa1B\xcc\x1c\xa0\xaa\xce\x00'
p102
ssS'download'
p103
(dp104
g6
(dp105
g8
S'download.html'
p106
sg10
g103
sg11
g12
(g13
g14
NtRp107
(dp108
g17
I1
sg18
I8
sg19
I29
sg20
I0
sg21
I0
sg22
I0
sg23
I0
sbssg24
S'y\xff;\x1a\xa2\xc8\x9c\xae\xa0\x8f\x94\xef\x92\x8e-\x18'
p109
ssS'csvtools'
p110
(dp111
g6
(dp112
g8
S'csvtools.html'
p113
sg10
g110
sg11
g12
(g13
g14
NtRp114
(dp115
g17
I1
sg18
I12
sg19
I25
sg20
I0
sg21
I1
sg22
I1
sg23
I1
sbssg24
S'\x86Lh7\x1by\x0c\x9e)\x08\x1a\xf6\xea\x84\x97\xa6'
p116
ssS'main'
p117
(dp118
g6
(dp119
g8
S'main.html'
p120
sg10
g117
sg11
g12
(g13
g14
NtRp121
(dp122
g17
I1
sg18
I24
sg19
I84
sg20
I2
sg21
I1
sg22
I0
sg23
I1
sbssg24
S'\xf9\xff\xf7)\x92\xe7\xea\xedC\xf1\xb9\x94\xb6;\x8a"'
p123
ssS'setup'
p124
(dp125
g6
(dp126
g8
S'setup.html'
p127
sg10
g124
sg11
g12
(g13
g14
NtRp128
(dp129
g17
I1
sg18
I4
sg19
I78
sg20
I0
sg21
I0
sg22
I0
sg23
I0
sbssg24
S'N\xf5\x9dPrD^%UA\xa3\x86\xcb+\xc3\xb5'
p130
sssS'version'
p131
S'3.7.1'
p132
sS'settings'
p133
S'\xfa\x08YF\xff\x12\x88\xccg\x8b\x11F\xa8\x0bW\xbc'
p134
sS'format'
p135
I1
s.